target datalayout = "e-m:e-p270:32:32-p271:32:32-p272:64:64-i64:64-i128:128-f80:128-n8:16:32:64-S128"
target triple = "x86_64-unknown-linux-gnu"

%struct.btIndexedMesh = type <{ i32, [4 x i8], ptr, i32, i32, ptr, i32, i32, i32, [4 x i8] }>
%class.btTriangleIndexVertexArray = type <{ %class.btStridingMeshInterface, %class.btAlignedObjectArray, [2 x i32], i32, %class.btVector3, %class.btVector3, [4 x i8] }>
%class.btStridingMeshInterface = type { ptr, %class.btVector3 }
%class.btAlignedObjectArray = type <{ %class.btAlignedAllocator, [3 x i8], i32, i32, [4 x i8], ptr, i8, [7 x i8] }>
%class.btAlignedAllocator = type { i8 }
%class.btVector3 = type { [4 x float] }

; Function Attrs: mustprogress nounwind uwtable
define linkonce_odr dso_local noundef nonnull align 8 dereferenceable(44) ptr @_ZNK20btAlignedObjectArrayI13btIndexedMeshEixEi(ptr noundef nonnull align 8 dereferenceable(25) %this, i32 noundef %n) #1 comdat align 2 {
entry:
  %this.addr = alloca ptr, align 8
  %n.addr = alloca i32, align 4
  store ptr %this, ptr %this.addr, align 8
  store i32 %n, ptr %n.addr, align 4
  %this1 = load ptr, ptr %this.addr, align 8
  %m_data = getelementptr inbounds %class.btAlignedObjectArray, ptr %this1, i32 0, i32 5
  %0 = load ptr, ptr %m_data, align 8
  %1 = load i32, ptr %n.addr, align 4
  %idxprom = sext i32 %1 to i64
  %arrayidx = getelementptr inbounds %struct.btIndexedMesh, ptr %0, i64 %idxprom
  ret ptr %arrayidx
}

; Function Attrs: mustprogress uwtable
define dso_local void @_ZNK26btTriangleIndexVertexArray32getLockedReadOnlyVertexIndexBaseEPPKhRiR14PHY_ScalarTypeS3_S2_S3_S3_S5_i(ptr noundef nonnull align 8 dereferenceable(100) %this, ptr noundef %vertexbase, ptr noundef nonnull align 4 dereferenceable(4) %numverts, ptr noundef nonnull align 4 dereferenceable(4) %type, ptr noundef nonnull align 4 dereferenceable(4) %vertexStride, ptr noundef %indexbase, ptr noundef nonnull align 4 dereferenceable(4) %indexstride, ptr noundef nonnull align 4 dereferenceable(4) %numfaces, ptr noundef nonnull align 4 dereferenceable(4) %indicestype, i32 noundef %subpart) unnamed_addr #2 align 2 {
entry:
  %this.addr = alloca ptr, align 8
  %vertexbase.addr = alloca ptr, align 8
  %numverts.addr = alloca ptr, align 8
  %type.addr = alloca ptr, align 8
  %vertexStride.addr = alloca ptr, align 8
  %indexbase.addr = alloca ptr, align 8
  %indexstride.addr = alloca ptr, align 8
  %numfaces.addr = alloca ptr, align 8
  %indicestype.addr = alloca ptr, align 8
  %subpart.addr = alloca i32, align 4
  %mesh = alloca ptr, align 8
  store ptr %this, ptr %this.addr, align 8
  store ptr %vertexbase, ptr %vertexbase.addr, align 8
  store ptr %numverts, ptr %numverts.addr, align 8
  store ptr %type, ptr %type.addr, align 8
  store ptr %vertexStride, ptr %vertexStride.addr, align 8
  store ptr %indexbase, ptr %indexbase.addr, align 8
  store ptr %indexstride, ptr %indexstride.addr, align 8
  store ptr %numfaces, ptr %numfaces.addr, align 8
  store ptr %indicestype, ptr %indicestype.addr, align 8
  store i32 %subpart, ptr %subpart.addr, align 4
  %this1 = load ptr, ptr %this.addr, align 8
  %m_indexedMeshes = getelementptr inbounds %class.btTriangleIndexVertexArray, ptr %this1, i32 0, i32 1
  %0 = load i32, ptr %subpart.addr, align 4
  %call = call noundef nonnull align 8 dereferenceable(44) ptr @_ZNK20btAlignedObjectArrayI13btIndexedMeshEixEi(ptr noundef nonnull align 8 dereferenceable(25) %m_indexedMeshes, i32 noundef %0)
  store ptr %call, ptr %mesh, align 8
  %1 = load ptr, ptr %mesh, align 8
  %m_numVertices = getelementptr inbounds %struct.btIndexedMesh, ptr %1, i32 0, i32 4
  %2 = load i32, ptr %m_numVertices, align 4
  %3 = load ptr, ptr %numverts.addr, align 8
  store i32 %2, ptr %3, align 4
  %4 = load ptr, ptr %mesh, align 8
  %m_vertexBase = getelementptr inbounds %struct.btIndexedMesh, ptr %4, i32 0, i32 5
  %5 = load ptr, ptr %m_vertexBase, align 8
  %6 = load ptr, ptr %vertexbase.addr, align 8
  store ptr %5, ptr %6, align 8
  %7 = load ptr, ptr %mesh, align 8
  %m_vertexType = getelementptr inbounds %struct.btIndexedMesh, ptr %7, i32 0, i32 8
  %8 = load i32, ptr %m_vertexType, align 8
  %9 = load ptr, ptr %type.addr, align 8
  store i32 %8, ptr %9, align 4
  %10 = load ptr, ptr %mesh, align 8
  %m_vertexStride = getelementptr inbounds %struct.btIndexedMesh, ptr %10, i32 0, i32 6
  %11 = load i32, ptr %m_vertexStride, align 8
  %12 = load ptr, ptr %vertexStride.addr, align 8
  store i32 %11, ptr %12, align 4
  %13 = load ptr, ptr %mesh, align 8
  %m_numTriangles = getelementptr inbounds %struct.btIndexedMesh, ptr %13, i32 0, i32 0
  %14 = load i32, ptr %m_numTriangles, align 8
  %15 = load ptr, ptr %numfaces.addr, align 8
  store i32 %14, ptr %15, align 4
  %16 = load ptr, ptr %mesh, align 8
  %m_triangleIndexBase = getelementptr inbounds %struct.btIndexedMesh, ptr %16, i32 0, i32 2
  %17 = load ptr, ptr %m_triangleIndexBase, align 8
  %18 = load ptr, ptr %indexbase.addr, align 8
  store ptr %17, ptr %18, align 8
  %19 = load ptr, ptr %mesh, align 8
  %m_triangleIndexStride = getelementptr inbounds %struct.btIndexedMesh, ptr %19, i32 0, i32 3
  %20 = load i32, ptr %m_triangleIndexStride, align 8
  %21 = load ptr, ptr %indexstride.addr, align 8
  store i32 %20, ptr %21, align 4
  %22 = load ptr, ptr %mesh, align 8
  %m_indexType = getelementptr inbounds %struct.btIndexedMesh, ptr %22, i32 0, i32 7
  %23 = load i32, ptr %m_indexType, align 4
  %24 = load ptr, ptr %indicestype.addr, align 8
  store i32 %23, ptr %24, align 4
  ret void
}